target datalayout = "e-m:e-p270:32:32-p271:32:32-p272:64:64-i64:64-i128:128-f80:128-n8:16:32:64-S128"
target triple = "x86_64-pc-linux-gnu"

@hf_Tango_PipeConfig_name = internal global i32 0, align 4
@hf_Tango_PipeConfig_description = internal global i32 0, align 4
@hf_Tango_PipeConfig_label = internal global i32 0, align 4
@hf_Tango_PipeConfig_level = internal global i32 0, align 4
@hf_Tango_PipeConfig_writable = internal global i32 0, align 4
@hf_Tango_PipeConfig_extensions_loop = internal global i32 0, align 4
@hf_Tango_PipeConfig_extensions = internal global i32 0, align 4
@ett_giop_sequence = internal global i32 0, align 4
@boundary = internal global i32 12, align 4
@.str.780 = private unnamed_addr constant [37 x i8] c"sequence Tango_PipeConfig_extensions\00", align 1

; Function Attrs: null_pointer_is_valid sspstrong uwtable
define internal void @decode_Tango_PipeConfig_st(ptr noundef %0, ptr noundef %1, ptr noundef %2, ptr noundef %3, ptr noundef %4, ptr noundef %5, ptr noundef %6, i1 noundef zeroext %7) #0 {
  %9 = alloca ptr, align 8
  %10 = alloca ptr, align 8
  %11 = alloca ptr, align 8
  %12 = alloca ptr, align 8
  %13 = alloca ptr, align 8
  %14 = alloca ptr, align 8
  %15 = alloca ptr, align 8
  %16 = alloca i8, align 1
  %17 = alloca i32, align 4
  %18 = alloca i32, align 4
  %19 = alloca i32, align 4
  %20 = alloca ptr, align 8
  store ptr %0, ptr %9, align 8
  store ptr %1, ptr %10, align 8
  store ptr %2, ptr %11, align 8
  store ptr %3, ptr %12, align 8
  store ptr %4, ptr %13, align 8
  store ptr %5, ptr %14, align 8
  store ptr %6, ptr %15, align 8
  %21 = zext i1 %7 to i8
  store i8 %21, ptr %16, align 1
  call void @llvm.lifetime.start.p0(i64 4, ptr %17) #6
  call void @llvm.lifetime.start.p0(i64 4, ptr %18) #6
  call void @llvm.lifetime.start.p0(i64 4, ptr %19) #6
  %22 = load ptr, ptr %11, align 8
  %23 = load ptr, ptr %9, align 8
  %24 = load ptr, ptr %13, align 8
  %25 = load i8, ptr %16, align 1, !range !6, !noundef !7
  %26 = trunc i8 %25 to i1
  %27 = load i32, ptr @boundary, align 4
  %28 = load i32, ptr @hf_Tango_PipeConfig_name, align 4
  call void @giop_add_CDR_string(ptr noundef %22, ptr noundef %23, ptr noundef %24, i1 noundef zeroext %26, i32 noundef %27, i32 noundef %28)
  %29 = load ptr, ptr %11, align 8
  %30 = load ptr, ptr %9, align 8
  %31 = load ptr, ptr %13, align 8
  %32 = load i8, ptr %16, align 1, !range !6, !noundef !7
  %33 = trunc i8 %32 to i1
  %34 = load i32, ptr @boundary, align 4
  %35 = load i32, ptr @hf_Tango_PipeConfig_description, align 4
  call void @giop_add_CDR_string(ptr noundef %29, ptr noundef %30, ptr noundef %31, i1 noundef zeroext %33, i32 noundef %34, i32 noundef %35)
  %36 = load ptr, ptr %11, align 8
  %37 = load ptr, ptr %9, align 8
  %38 = load ptr, ptr %13, align 8
  %39 = load i8, ptr %16, align 1, !range !6, !noundef !7
  %40 = trunc i8 %39 to i1
  %41 = load i32, ptr @boundary, align 4
  %42 = load i32, ptr @hf_Tango_PipeConfig_label, align 4
  call void @giop_add_CDR_string(ptr noundef %36, ptr noundef %37, ptr noundef %38, i1 noundef zeroext %40, i32 noundef %41, i32 noundef %42)
  %43 = load ptr, ptr %9, align 8
  %44 = load ptr, ptr %13, align 8
  %45 = load i8, ptr %16, align 1, !range !6, !noundef !7
  %46 = trunc i8 %45 to i1
  %47 = load i32, ptr @boundary, align 4
  %48 = call i32 @get_CDR_enum(ptr noundef %43, ptr noundef %44, i1 noundef zeroext %46, i32 noundef %47)
  store i32 %48, ptr %17, align 4
  %49 = load ptr, ptr %11, align 8
  %50 = load i32, ptr @hf_Tango_PipeConfig_level, align 4
  %51 = load ptr, ptr %9, align 8
  %52 = load ptr, ptr %13, align 8
  %53 = load i32, ptr %52, align 4
  %54 = sub i32 %53, 4
  %55 = load i32, ptr %17, align 4
  %56 = call ptr @proto_tree_add_uint(ptr noundef %49, i32 noundef %50, ptr noundef %51, i32 noundef %54, i32 noundef 4, i32 noundef %55)
  %57 = load ptr, ptr %9, align 8
  %58 = load ptr, ptr %13, align 8
  %59 = load i8, ptr %16, align 1, !range !6, !noundef !7
  %60 = trunc i8 %59 to i1
  %61 = load i32, ptr @boundary, align 4
  %62 = call i32 @get_CDR_enum(ptr noundef %57, ptr noundef %58, i1 noundef zeroext %60, i32 noundef %61)
  store i32 %62, ptr %17, align 4
  %63 = load ptr, ptr %11, align 8
  %64 = load i32, ptr @hf_Tango_PipeConfig_writable, align 4
  %65 = load ptr, ptr %9, align 8
  %66 = load ptr, ptr %13, align 8
  %67 = load i32, ptr %66, align 4
  %68 = sub i32 %67, 4
  %69 = load i32, ptr %17, align 4
  %70 = call ptr @proto_tree_add_uint(ptr noundef %63, i32 noundef %64, ptr noundef %65, i32 noundef %68, i32 noundef 4, i32 noundef %69)
  %71 = load ptr, ptr %9, align 8
  %72 = load ptr, ptr %13, align 8
  %73 = load i8, ptr %16, align 1, !range !6, !noundef !7
  %74 = trunc i8 %73 to i1
  %75 = load i32, ptr @boundary, align 4
  %76 = call i32 @get_CDR_ulong(ptr noundef %71, ptr noundef %72, i1 noundef zeroext %74, i32 noundef %75)
  store i32 %76, ptr %18, align 4
  %77 = load ptr, ptr %11, align 8
  %78 = load i32, ptr @hf_Tango_PipeConfig_extensions_loop, align 4
  %79 = load ptr, ptr %9, align 8
  %80 = load ptr, ptr %13, align 8
  %81 = load i32, ptr %80, align 4
  %82 = sub i32 %81, 4
  %83 = load i32, ptr %18, align 4
  %84 = call ptr @proto_tree_add_uint(ptr noundef %77, i32 noundef %78, ptr noundef %79, i32 noundef %82, i32 noundef 4, i32 noundef %83)
  call void @llvm.lifetime.start.p0(i64 8, ptr %20) #6
  %85 = load ptr, ptr %11, align 8
  store ptr %85, ptr %20, align 8
  %86 = load ptr, ptr %11, align 8
  %87 = load ptr, ptr %9, align 8
  %88 = load ptr, ptr %13, align 8
  %89 = load i32, ptr %88, align 4
  %90 = load i32, ptr @ett_giop_sequence, align 4
  %91 = call ptr @proto_tree_add_subtree(ptr noundef %86, ptr noundef %87, i32 noundef %89, i32 noundef -1, i32 noundef %90, ptr noundef null, ptr noundef @.str.780)
  store ptr %91, ptr %11, align 8
  store i32 0, ptr %19, align 4
  br label %92

92:                                               ; preds = %104, %8
  %93 = load i32, ptr %19, align 4
  %94 = load i32, ptr %18, align 4
  %95 = icmp ult i32 %93, %94
  br i1 %95, label %96, label %107

96:                                               ; preds = %92
  %97 = load ptr, ptr %11, align 8
  %98 = load ptr, ptr %9, align 8
  %99 = load ptr, ptr %13, align 8
  %100 = load i8, ptr %16, align 1, !range !6, !noundef !7
  %101 = trunc i8 %100 to i1
  %102 = load i32, ptr @boundary, align 4
  %103 = load i32, ptr @hf_Tango_PipeConfig_extensions, align 4
  call void @giop_add_CDR_string(ptr noundef %97, ptr noundef %98, ptr noundef %99, i1 noundef zeroext %101, i32 noundef %102, i32 noundef %103)
  br label %104

104:                                              ; preds = %96
  %105 = load i32, ptr %19, align 4
  %106 = add i32 %105, 1
  store i32 %106, ptr %19, align 4
  br label %92, !llvm.loop !53

107:                                              ; preds = %92
  %108 = load ptr, ptr %20, align 8
  store ptr %108, ptr %11, align 8
  call void @llvm.lifetime.end.p0(i64 8, ptr %20) #6
  call void @llvm.lifetime.end.p0(i64 4, ptr %19) #6
  call void @llvm.lifetime.end.p0(i64 4, ptr %18) #6
  call void @llvm.lifetime.end.p0(i64 4, ptr %17) #6
  ret void
}