; Function Attrs: null_pointer_is_valid sspstrong uwtable
define internal fastcc void @decode_Tango_PipeConfig_st(ptr noundef %0, ptr noundef %1, ptr noundef %2, i1 noundef zeroext %3) unnamed_addr #0 {
  %5 = load i32, ptr @hf_Tango_PipeConfig_name, align 4
  tail call void @giop_add_CDR_string(ptr noundef %1, ptr noundef %0, ptr noundef %2, i1 noundef zeroext %3, i32 noundef 12, i32 noundef %5)
  %6 = load i32, ptr @hf_Tango_PipeConfig_description, align 4
  tail call void @giop_add_CDR_string(ptr noundef %1, ptr noundef %0, ptr noundef %2, i1 noundef zeroext %3, i32 noundef 12, i32 noundef %6)
  %7 = load i32, ptr @hf_Tango_PipeConfig_label, align 4
  tail call void @giop_add_CDR_string(ptr noundef %1, ptr noundef %0, ptr noundef %2, i1 noundef zeroext %3, i32 noundef 12, i32 noundef %7)
  %8 = tail call i32 @get_CDR_enum(ptr noundef %0, ptr noundef %2, i1 noundef zeroext %3, i32 noundef 12)
  %9 = load i32, ptr @hf_Tango_PipeConfig_level, align 4
  %10 = load i32, ptr %2, align 4
  %11 = add i32 %10, -4
  %12 = tail call ptr @proto_tree_add_uint(ptr noundef %1, i32 noundef %9, ptr noundef %0, i32 noundef %11, i32 noundef 4, i32 noundef %8)
  %13 = tail call i32 @get_CDR_enum(ptr noundef %0, ptr noundef %2, i1 noundef zeroext %3, i32 noundef 12)
  %14 = load i32, ptr @hf_Tango_PipeConfig_writable, align 4
  %15 = load i32, ptr %2, align 4
  %16 = add i32 %15, -4
  %17 = tail call ptr @proto_tree_add_uint(ptr noundef %1, i32 noundef %14, ptr noundef %0, i32 noundef %16, i32 noundef 4, i32 noundef %13)
  %18 = tail call i32 @get_CDR_ulong(ptr noundef %0, ptr noundef %2, i1 noundef zeroext %3, i32 noundef 12)
  %19 = load i32, ptr @hf_Tango_PipeConfig_extensions_loop, align 4
  %20 = load i32, ptr %2, align 4
  %21 = add i32 %20, -4
  %22 = tail call ptr @proto_tree_add_uint(ptr noundef %1, i32 noundef %19, ptr noundef %0, i32 noundef %21, i32 noundef 4, i32 noundef %18)
  %23 = load i32, ptr %2, align 4
  %24 = load i32, ptr @ett_giop_sequence, align 4
  %25 = tail call ptr @proto_tree_add_subtree(ptr noundef %1, ptr noundef %0, i32 noundef %23, i32 noundef -1, i32 noundef %24, ptr noundef null, ptr noundef nonnull @.str.780)
  %.not = icmp eq i32 %18, 0
  br i1 %.not, label %._crit_edge, label %.lr.ph

.lr.ph:                                           ; preds = %4, %.lr.ph
  %.01 = phi i32 [ %27, %.lr.ph ], [ 0, %4 ]
  %26 = load i32, ptr @hf_Tango_PipeConfig_extensions, align 4
  tail call void @giop_add_CDR_string(ptr noundef %25, ptr noundef %0, ptr noundef %2, i1 noundef zeroext %3, i32 noundef 12, i32 noundef %26)
  %27 = add nuw i32 %.01, 1
  %exitcond.not = icmp eq i32 %27, %18
  br i1 %exitcond.not, label %._crit_edge, label %.lr.ph, !llvm.loop !78

._crit_edge:                                      ; preds = %.lr.ph, %4
  ret void
}